; ModuleID = '20/271.c'
source_filename = "20/271.c"
target datalayout = "e-m:e-p270:32:32-p271:32:32-p272:64:64-i64:64-f80:128-n8:16:32:64-S128"
target triple = "x86_64-pc-linux-gnu"

@.str = private unnamed_addr constant [6 x i8] c"%s %s\00", align 1
@.str.1 = private unnamed_addr constant [2 x i8] c"\0A\00", align 1

; Function Attrs: noinline nounwind uwtable
define dso_local void @main() #0 {
  %1 = alloca i32, align 4
  %2 = alloca i32, align 4
  %3 = alloca i32, align 4
  %4 = alloca i32, align 4
  %5 = alloca i32, align 4
  %6 = alloca i32, align 4
  %7 = alloca [10 x [15 x i8]], align 16
  %8 = alloca [10 x [15 x i8]], align 16
  %9 = alloca [10 x [15 x i8]], align 16
  store i32 0, i32* %4, align 4
  store i32 0, i32* %1, align 4
  br label %10

10:                                               ; preds = %40, %0
  %11 = load i32, i32* %1, align 4
  %12 = icmp slt i32 %11, 10
  br i1 %12, label %13, label %43

13:                                               ; preds = %10
  store i32 0, i32* %2, align 4
  br label %14

14:                                               ; preds = %36, %13
  %15 = load i32, i32* %2, align 4
  %16 = icmp slt i32 %15, 15
  br i1 %16, label %17, label %39

17:                                               ; preds = %14
  %18 = load i32, i32* %1, align 4
  %19 = sext i32 %18 to i64
  %20 = getelementptr inbounds [10 x [15 x i8]], [10 x [15 x i8]]* %7, i64 0, i64 %19
  %21 = load i32, i32* %2, align 4
  %22 = sext i32 %21 to i64
  %23 = getelementptr inbounds [15 x i8], [15 x i8]* %20, i64 0, i64 %22
  store i8 0, i8* %23, align 1
  %24 = load i32, i32* %1, align 4
  %25 = sext i32 %24 to i64
  %26 = getelementptr inbounds [10 x [15 x i8]], [10 x [15 x i8]]* %8, i64 0, i64 %25
  %27 = load i32, i32* %2, align 4
  %28 = sext i32 %27 to i64
  %29 = getelementptr inbounds [15 x i8], [15 x i8]* %26, i64 0, i64 %28
  store i8 0, i8* %29, align 1
  %30 = load i32, i32* %1, align 4
  %31 = sext i32 %30 to i64
  %32 = getelementptr inbounds [10 x [15 x i8]], [10 x [15 x i8]]* %9, i64 0, i64 %31
  %33 = load i32, i32* %2, align 4
  %34 = sext i32 %33 to i64
  %35 = getelementptr inbounds [15 x i8], [15 x i8]* %32, i64 0, i64 %34
  store i8 0, i8* %35, align 1
  br label %36

36:                                               ; preds = %17
  %37 = load i32, i32* %2, align 4
  %38 = add nsw i32 %37, 1
  store i32 %38, i32* %2, align 4
  br label %14

39:                                               ; preds = %14
  br label %40

40:                                               ; preds = %39
  %41 = load i32, i32* %1, align 4
  %42 = add nsw i32 %41, 1
  store i32 %42, i32* %1, align 4
  br label %10

43:                                               ; preds = %10
  store i32 0, i32* %1, align 4
  br label %44

44:                                               ; preds = %152, %43
  %45 = load i32, i32* %1, align 4
  %46 = sext i32 %45 to i64
  %47 = getelementptr inbounds [10 x [15 x i8]], [10 x [15 x i8]]* %7, i64 0, i64 %46
  %48 = getelementptr inbounds [15 x i8], [15 x i8]* %47, i64 0, i64 0
  %49 = load i32, i32* %1, align 4
  %50 = sext i32 %49 to i64
  %51 = getelementptr inbounds [10 x [15 x i8]], [10 x [15 x i8]]* %8, i64 0, i64 %50
  %52 = getelementptr inbounds [15 x i8], [15 x i8]* %51, i64 0, i64 0
  %53 = call i32 (i8*, ...) @__isoc99_scanf(i8* getelementptr inbounds ([6 x i8], [6 x i8]* @.str, i64 0, i64 0), i8* %48, i8* %52)
  %54 = icmp ne i32 %53, -1
  br i1 %54, label %55, label %155

55:                                               ; preds = %44
  %56 = load i32, i32* %1, align 4
  %57 = sext i32 %56 to i64
  %58 = getelementptr inbounds [10 x [15 x i8]], [10 x [15 x i8]]* %7, i64 0, i64 %57
  %59 = getelementptr inbounds [15 x i8], [15 x i8]* %58, i64 0, i64 0
  %60 = call i64 @strlen(i8* %59) #3
  %61 = trunc i64 %60 to i32
  store i32 %61, i32* %5, align 4
  store i32 0, i32* %3, align 4
  store i32 0, i32* %4, align 4
  br label %62

62:                                               ; preds = %90, %55
  %63 = load i32, i32* %3, align 4
  %64 = load i32, i32* %5, align 4
  %65 = sub nsw i32 %64, 1
  %66 = icmp slt i32 %63, %65
  br i1 %66, label %67, label %93

67:                                               ; preds = %62
  %68 = load i32, i32* %1, align 4
  %69 = sext i32 %68 to i64
  %70 = getelementptr inbounds [10 x [15 x i8]], [10 x [15 x i8]]* %7, i64 0, i64 %69
  %71 = load i32, i32* %4, align 4
  %72 = sext i32 %71 to i64
  %73 = getelementptr inbounds [15 x i8], [15 x i8]* %70, i64 0, i64 %72
  %74 = load i8, i8* %73, align 1
  %75 = sext i8 %74 to i32
  %76 = load i32, i32* %1, align 4
  %77 = sext i32 %76 to i64
  %78 = getelementptr inbounds [10 x [15 x i8]], [10 x [15 x i8]]* %7, i64 0, i64 %77
  %79 = load i32, i32* %3, align 4
  %80 = add nsw i32 %79, 1
  %81 = sext i32 %80 to i64
  %82 = getelementptr inbounds [15 x i8], [15 x i8]* %78, i64 0, i64 %81
  %83 = load i8, i8* %82, align 1
  %84 = sext i8 %83 to i32
  %85 = icmp slt i32 %75, %84
  br i1 %85, label %86, label %89

86:                                               ; preds = %67
  %87 = load i32, i32* %3, align 4
  %88 = add nsw i32 %87, 1
  store i32 %88, i32* %4, align 4
  br label %89

89:                                               ; preds = %86, %67
  br label %90

90:                                               ; preds = %89
  %91 = load i32, i32* %3, align 4
  %92 = add nsw i32 %91, 1
  store i32 %92, i32* %3, align 4
  br label %62

93:                                               ; preds = %62
  %94 = load i32, i32* %5, align 4
  %95 = sub nsw i32 %94, 1
  store i32 %95, i32* %3, align 4
  br label %96

96:                                               ; preds = %115, %93
  %97 = load i32, i32* %3, align 4
  %98 = load i32, i32* %4, align 4
  %99 = icmp sgt i32 %97, %98
  br i1 %99, label %100, label %118

100:                                              ; preds = %96
  %101 = load i32, i32* %1, align 4
  %102 = sext i32 %101 to i64
  %103 = getelementptr inbounds [10 x [15 x i8]], [10 x [15 x i8]]* %7, i64 0, i64 %102
  %104 = load i32, i32* %3, align 4
  %105 = sext i32 %104 to i64
  %106 = getelementptr inbounds [15 x i8], [15 x i8]* %103, i64 0, i64 %105
  %107 = load i8, i8* %106, align 1
  %108 = load i32, i32* %1, align 4
  %109 = sext i32 %108 to i64
  %110 = getelementptr inbounds [10 x [15 x i8]], [10 x [15 x i8]]* %7, i64 0, i64 %109
  %111 = load i32, i32* %3, align 4
  %112 = add nsw i32 %111, 3
  %113 = sext i32 %112 to i64
  %114 = getelementptr inbounds [15 x i8], [15 x i8]* %110, i64 0, i64 %113
  store i8 %107, i8* %114, align 1
  br label %115

115:                                              ; preds = %100
  %116 = load i32, i32* %3, align 4
  %117 = add nsw i32 %116, -1
  store i32 %117, i32* %3, align 4
  br label %96

118:                                              ; preds = %96
  %119 = load i32, i32* %4, align 4
  %120 = add nsw i32 %119, 1
  store i32 %120, i32* %3, align 4
  store i32 0, i32* %6, align 4
  br label %121

121:                                              ; preds = %140, %118
  %122 = load i32, i32* %3, align 4
  %123 = load i32, i32* %4, align 4
  %124 = add nsw i32 %123, 4
  %125 = icmp ne i32 %122, %124
  br i1 %125, label %126, label %145

126:                                              ; preds = %121
  %127 = load i32, i32* %1, align 4
  %128 = sext i32 %127 to i64
  %129 = getelementptr inbounds [10 x [15 x i8]], [10 x [15 x i8]]* %8, i64 0, i64 %128
  %130 = load i32, i32* %6, align 4
  %131 = sext i32 %130 to i64
  %132 = getelementptr inbounds [15 x i8], [15 x i8]* %129, i64 0, i64 %131
  %133 = load i8, i8* %132, align 1
  %134 = load i32, i32* %1, align 4
  %135 = sext i32 %134 to i64
  %136 = getelementptr inbounds [10 x [15 x i8]], [10 x [15 x i8]]* %7, i64 0, i64 %135
  %137 = load i32, i32* %3, align 4
  %138 = sext i32 %137 to i64
  %139 = getelementptr inbounds [15 x i8], [15 x i8]* %136, i64 0, i64 %138
  store i8 %133, i8* %139, align 1
  br label %140

140:                                              ; preds = %126
  %141 = load i32, i32* %3, align 4
  %142 = add nsw i32 %141, 1
  store i32 %142, i32* %3, align 4
  %143 = load i32, i32* %6, align 4
  %144 = add nsw i32 %143, 1
  store i32 %144, i32* %6, align 4
  br label %121

145:                                              ; preds = %121
  %146 = load i32, i32* %1, align 4
  %147 = sext i32 %146 to i64
  %148 = getelementptr inbounds [10 x [15 x i8]], [10 x [15 x i8]]* %7, i64 0, i64 %147
  %149 = getelementptr inbounds [15 x i8], [15 x i8]* %148, i64 0, i64 0
  %150 = call i32 @puts(i8* %149)
  %151 = call i32 (i8*, ...) @printf(i8* getelementptr inbounds ([2 x i8], [2 x i8]* @.str.1, i64 0, i64 0))
  br label %152

152:                                              ; preds = %145
  %153 = load i32, i32* %1, align 4
  %154 = add nsw i32 %153, 1
  store i32 %154, i32* %1, align 4
  br label %44

155:                                              ; preds = %44
  ret void
}

declare dso_local i32 @__isoc99_scanf(i8*, ...) #1

; Function Attrs: nounwind readonly
declare dso_local i64 @strlen(i8*) #2

declare dso_local i32 @puts(i8*) #1

declare dso_local i32 @printf(i8*, ...) #1


!llvm.module.flags = !{!0}
!llvm.ident = !{!1}

!0 = !{i32 1, !"wchar_size", i32 4}
!1 = !{!"clang version 10.0.0-4ubuntu1 "}
